; Function Attrs: mustprogress uwtable
define dso_local void @_ZN16btCollisionWorld13rayTestSingleERK11btTransformS2_P17btCollisionObjectPK16btCollisionShapeS2_RNS_17RayResultCallbackE(ptr noundef nonnull align 4 dereferenceable(64) %rayFromTrans, ptr noundef nonnull align 4 dereferenceable(64) %rayToTrans, ptr noundef %collisionObject, ptr noundef %collisionShape, ptr noundef nonnull align 4 dereferenceable(64) %colObjWorldTransform, ptr noundef nonnull align 8 dereferenceable(36) %resultCallback) local_unnamed_addr #4 align 2 {
entry:
  %colObWrap = alloca %struct.btCollisionObjectWrapper, align 8
  store ptr null, ptr %colObWrap, align 8
  %m_shape.i = getelementptr inbounds i8, ptr %colObWrap, i64 8
  store ptr %collisionShape, ptr %m_shape.i, align 8
  %m_collisionObject.i = getelementptr inbounds i8, ptr %colObWrap, i64 16
  store ptr %collisionObject, ptr %m_collisionObject.i, align 8
  %m_worldTransform.i = getelementptr inbounds i8, ptr %colObWrap, i64 24
  store ptr %colObjWorldTransform, ptr %m_worldTransform.i, align 8
  %m_preTransform.i = getelementptr inbounds i8, ptr %colObWrap, i64 32
  store ptr null, ptr %m_preTransform.i, align 8
  %m_partId.i = getelementptr inbounds i8, ptr %colObWrap, i64 40
  store i32 -1, ptr %m_partId.i, align 8
  %m_index.i = getelementptr inbounds i8, ptr %colObWrap, i64 44
  store i32 -1, ptr %m_index.i, align 4
  call void @_ZN16btCollisionWorld21rayTestSingleInternalERK11btTransformS2_PK24btCollisionObjectWrapperRNS_17RayResultCallbackE(ptr noundef nonnull align 4 dereferenceable(64) %rayFromTrans, ptr noundef nonnull align 4 dereferenceable(64) %rayToTrans, ptr noundef nonnull %colObWrap, ptr noundef nonnull align 8 dereferenceable(36) %resultCallback)
  ret void
}